target datalayout = "e-m:e-p270:32:32-p271:32:32-p272:64:64-i64:64-i128:128-f80:128-n8:16:32:64-S128"
target triple = "x86_64-pc-linux-gnu"

%struct.yypcontext_t = type { ptr, i32 }

@.str.2 = private unnamed_addr constant [13 x i8] c"syntax error\00", align 1
@.str.8 = private unnamed_addr constant [28 x i8] c"syntax error, unexpected %s\00", align 1
@.str.9 = private unnamed_addr constant [42 x i8] c"syntax error, unexpected %s, expecting %s\00", align 1
@.str.10 = private unnamed_addr constant [48 x i8] c"syntax error, unexpected %s, expecting %s or %s\00", align 1
@.str.11 = private unnamed_addr constant [54 x i8] c"syntax error, unexpected %s, expecting %s or %s or %s\00", align 1
@.str.12 = private unnamed_addr constant [60 x i8] c"syntax error, unexpected %s, expecting %s or %s or %s or %s\00", align 1

; Function Attrs: nounwind uwtable
define internal i32 @yypcontext_expected_tokens(ptr noundef %0, ptr noundef %1, i32 noundef %2) #0 {
  %4 = alloca i32, align 4
  %5 = alloca ptr, align 8
  %6 = alloca ptr, align 8
  %7 = alloca i32, align 4
  %8 = alloca i32, align 4
  %9 = alloca i32, align 4
  %10 = alloca i32, align 4
  %11 = alloca i32, align 4
  %12 = alloca i32, align 4
  %13 = alloca i32, align 4
  store ptr %0, ptr %5, align 8
  store ptr %1, ptr %6, align 8
  store i32 %2, ptr %7, align 4
  store i32 0, ptr %8, align 4
  %14 = load ptr, ptr %5, align 8
  %15 = getelementptr inbounds %struct.yypcontext_t, ptr %14, i32 0, i32 0
  %16 = load ptr, ptr %15, align 8
  %17 = load i16, ptr %16, align 2
  %18 = sext i16 %17 to i32
  %19 = sext i32 %18 to i64
  %20 = getelementptr inbounds [1131 x i16], ptr @yypact, i64 0, i64 %19
  %21 = load i16, ptr %20, align 2
  %22 = sext i16 %21 to i32
  store i32 %22, ptr %9, align 4
  %23 = load i32, ptr %9, align 4
  %24 = icmp eq i32 %23, -901
  br i1 %24, label %96, label %25

25:                                               ; preds = %3
  %26 = load i32, ptr %9, align 4
  %27 = icmp slt i32 %26, 0
  br i1 %27, label %28, label %31

28:                                               ; preds = %25
  %29 = load i32, ptr %9, align 4
  %30 = sub nsw i32 0, %29
  br label %32

31:                                               ; preds = %25
  br label %32

32:                                               ; preds = %31, %28
  %33 = phi i32 [ %30, %28 ], [ 0, %31 ]
  store i32 %33, ptr %10, align 4
  %34 = load i32, ptr %9, align 4
  %35 = sub nsw i32 9776, %34
  %36 = add nsw i32 %35, 1
  store i32 %36, ptr %11, align 4
  %37 = load i32, ptr %11, align 4
  %38 = icmp slt i32 %37, 179
  br i1 %38, label %39, label %41

39:                                               ; preds = %32
  %40 = load i32, ptr %11, align 4
  br label %42

41:                                               ; preds = %32
  br label %42

42:                                               ; preds = %41, %39
  %43 = phi i32 [ %40, %39 ], [ 179, %41 ]
  store i32 %43, ptr %12, align 4
  %44 = load i32, ptr %10, align 4
  store i32 %44, ptr %13, align 4
  br label %45

45:                                               ; preds = %92, %42
  %46 = load i32, ptr %13, align 4
  %47 = load i32, ptr %12, align 4
  %48 = icmp slt i32 %46, %47
  br i1 %48, label %49, label %95

49:                                               ; preds = %45
  %50 = load i32, ptr %13, align 4
  %51 = load i32, ptr %9, align 4
  %52 = add nsw i32 %50, %51
  %53 = sext i32 %52 to i64
  %54 = getelementptr inbounds [9777 x i16], ptr @yycheck, i64 0, i64 %53
  %55 = load i16, ptr %54, align 2
  %56 = sext i16 %55 to i32
  %57 = load i32, ptr %13, align 4
  %58 = icmp eq i32 %56, %57
  br i1 %58, label %59, label %91

59:                                               ; preds = %49
  %60 = load i32, ptr %13, align 4
  %61 = icmp ne i32 %60, 1
  br i1 %61, label %62, label %91

62:                                               ; preds = %59
  %63 = load i32, ptr %13, align 4
  %64 = load i32, ptr %9, align 4
  %65 = add nsw i32 %63, %64
  %66 = sext i32 %65 to i64
  %67 = getelementptr inbounds [9777 x i16], ptr @yytable, i64 0, i64 %66
  %68 = load i16, ptr %67, align 2
  %69 = sext i16 %68 to i32
  %70 = icmp eq i32 %69, -568
  br i1 %70, label %91, label %71

71:                                               ; preds = %62
  %72 = load ptr, ptr %6, align 8
  %73 = icmp ne ptr %72, null
  br i1 %73, label %77, label %74

74:                                               ; preds = %71
  %75 = load i32, ptr %8, align 4
  %76 = add nsw i32 %75, 1
  store i32 %76, ptr %8, align 4
  br label %90

77:                                               ; preds = %71
  %78 = load i32, ptr %8, align 4
  %79 = load i32, ptr %7, align 4
  %80 = icmp eq i32 %78, %79
  br i1 %80, label %81, label %82

81:                                               ; preds = %77
  store i32 0, ptr %4, align 4
  br label %110

82:                                               ; preds = %77
  %83 = load i32, ptr %13, align 4
  %84 = load ptr, ptr %6, align 8
  %85 = load i32, ptr %8, align 4
  %86 = add nsw i32 %85, 1
  store i32 %86, ptr %8, align 4
  %87 = sext i32 %85 to i64
  %88 = getelementptr inbounds i32, ptr %84, i64 %87
  store i32 %83, ptr %88, align 4
  br label %89

89:                                               ; preds = %82
  br label %90

90:                                               ; preds = %89, %74
  br label %91

91:                                               ; preds = %90, %62, %59, %49
  br label %92

92:                                               ; preds = %91
  %93 = load i32, ptr %13, align 4
  %94 = add nsw i32 %93, 1
  store i32 %94, ptr %13, align 4
  br label %45

95:                                               ; preds = %45
  br label %96

96:                                               ; preds = %95, %3
  %97 = load ptr, ptr %6, align 8
  %98 = icmp ne ptr %97, null
  br i1 %98, label %99, label %108

99:                                               ; preds = %96
  %100 = load i32, ptr %8, align 4
  %101 = icmp eq i32 %100, 0
  br i1 %101, label %102, label %108

102:                                              ; preds = %99
  %103 = load i32, ptr %7, align 4
  %104 = icmp slt i32 0, %103
  br i1 %104, label %105, label %108

105:                                              ; preds = %102
  %106 = load ptr, ptr %6, align 8
  %107 = getelementptr inbounds i32, ptr %106, i64 0
  store i32 -2, ptr %107, align 4
  br label %108

108:                                              ; preds = %105, %102, %99, %96
  %109 = load i32, ptr %8, align 4
  store i32 %109, ptr %4, align 4
  br label %110

110:                                              ; preds = %108, %81
  %111 = load i32, ptr %4, align 4
  ret i32 %111
}

; Function Attrs: nounwind uwtable
define internal i32 @yy_syntax_error_arguments(ptr noundef %0, ptr noundef %1, i32 noundef %2) #0 {
  %4 = alloca i32, align 4
  %5 = alloca ptr, align 8
  %6 = alloca ptr, align 8
  %7 = alloca i32, align 4
  %8 = alloca i32, align 4
  %9 = alloca i32, align 4
  store ptr %0, ptr %5, align 8
  store ptr %1, ptr %6, align 8
  store i32 %2, ptr %7, align 4
  store i32 0, ptr %8, align 4
  %10 = load ptr, ptr %5, align 8
  %11 = getelementptr inbounds %struct.yypcontext_t, ptr %10, i32 0, i32 1
  %12 = load i32, ptr %11, align 8
  %13 = icmp ne i32 %12, -2
  br i1 %13, label %14, label %49

14:                                               ; preds = %3
  %15 = load ptr, ptr %6, align 8
  %16 = icmp ne ptr %15, null
  br i1 %16, label %17, label %25

17:                                               ; preds = %14
  %18 = load ptr, ptr %5, align 8
  %19 = getelementptr inbounds %struct.yypcontext_t, ptr %18, i32 0, i32 1
  %20 = load i32, ptr %19, align 8
  %21 = load ptr, ptr %6, align 8
  %22 = load i32, ptr %8, align 4
  %23 = sext i32 %22 to i64
  %24 = getelementptr inbounds i32, ptr %21, i64 %23
  store i32 %20, ptr %24, align 4
  br label %25

25:                                               ; preds = %17, %14
  %26 = load i32, ptr %8, align 4
  %27 = add nsw i32 %26, 1
  store i32 %27, ptr %8, align 4
  %28 = load ptr, ptr %5, align 8
  %29 = load ptr, ptr %6, align 8
  %30 = icmp ne ptr %29, null
  br i1 %30, label %31, label %34

31:                                               ; preds = %25
  %32 = load ptr, ptr %6, align 8
  %33 = getelementptr inbounds i32, ptr %32, i64 1
  br label %36

34:                                               ; preds = %25
  %35 = load ptr, ptr %6, align 8
  br label %36

36:                                               ; preds = %34, %31
  %37 = phi ptr [ %33, %31 ], [ %35, %34 ]
  %38 = load i32, ptr %7, align 4
  %39 = sub nsw i32 %38, 1
  %40 = call i32 @yypcontext_expected_tokens(ptr noundef %28, ptr noundef %37, i32 noundef %39)
  store i32 %40, ptr %9, align 4
  %41 = load i32, ptr %9, align 4
  %42 = icmp eq i32 %41, -2
  br i1 %42, label %43, label %44

43:                                               ; preds = %36
  store i32 -2, ptr %4, align 4
  br label %51

44:                                               ; preds = %36
  %45 = load i32, ptr %9, align 4
  %46 = load i32, ptr %8, align 4
  %47 = add nsw i32 %46, %45
  store i32 %47, ptr %8, align 4
  br label %48

48:                                               ; preds = %44
  br label %49

49:                                               ; preds = %48, %3
  %50 = load i32, ptr %8, align 4
  store i32 %50, ptr %4, align 4
  br label %51

51:                                               ; preds = %49, %43
  %52 = load i32, ptr %4, align 4
  ret i32 %52
}

; Function Attrs: nounwind uwtable
define internal i32 @yysyntax_error(ptr noundef %0, ptr noundef %1, ptr noundef %2) #0 {
  %4 = alloca i32, align 4
  %5 = alloca ptr, align 8
  %6 = alloca ptr, align 8
  %7 = alloca ptr, align 8
  %8 = alloca ptr, align 8
  %9 = alloca [5 x i32], align 16
  %10 = alloca i64, align 8
  %11 = alloca i32, align 4
  %12 = alloca i32, align 4
  %13 = alloca i64, align 8
  %14 = alloca ptr, align 8
  %15 = alloca i32, align 4
  store ptr %0, ptr %5, align 8
  store ptr %1, ptr %6, align 8
  store ptr %2, ptr %7, align 8
  store ptr null, ptr %8, align 8
  store i64 0, ptr %10, align 8
  %16 = load ptr, ptr %7, align 8
  %17 = getelementptr inbounds [5 x i32], ptr %9, i64 0, i64 0
  %18 = call i32 @yy_syntax_error_arguments(ptr noundef %16, ptr noundef %17, i32 noundef 5)
  store i32 %18, ptr %11, align 4
  %19 = load i32, ptr %11, align 4
  %20 = icmp eq i32 %19, -2
  br i1 %20, label %21, label %22

21:                                               ; preds = %3
  store i32 -2, ptr %4, align 4
  br label %133

22:                                               ; preds = %3
  %23 = load i32, ptr %11, align 4
  switch i32 %23, label %24 [
    i32 0, label %25
    i32 1, label %26
    i32 2, label %27
    i32 3, label %28
    i32 4, label %29
    i32 5, label %30
  ]

24:                                               ; preds = %22
  br label %25

25:                                               ; preds = %24, %22
  store ptr @.str.2, ptr %8, align 8
  br label %31

26:                                               ; preds = %22
  store ptr @.str.8, ptr %8, align 8
  br label %31

27:                                               ; preds = %22
  store ptr @.str.9, ptr %8, align 8
  br label %31

28:                                               ; preds = %22
  store ptr @.str.10, ptr %8, align 8
  br label %31

29:                                               ; preds = %22
  store ptr @.str.11, ptr %8, align 8
  br label %31

30:                                               ; preds = %22
  store ptr @.str.12, ptr %8, align 8
  br label %31

31:                                               ; preds = %30, %29, %28, %27, %26, %25
  %32 = load ptr, ptr %8, align 8
  %33 = call i64 @strlen(ptr noundef %32) #11
  %34 = load i32, ptr %11, align 4
  %35 = mul nsw i32 2, %34
  %36 = sext i32 %35 to i64
  %37 = sub nsw i64 %33, %36
  %38 = add nsw i64 %37, 1
  store i64 %38, ptr %10, align 8
  store i32 0, ptr %12, align 4
  br label %39

39:                                               ; preds = %64, %31
  %40 = load i32, ptr %12, align 4
  %41 = load i32, ptr %11, align 4
  %42 = icmp slt i32 %40, %41
  br i1 %42, label %43, label %67

43:                                               ; preds = %39
  %44 = load i64, ptr %10, align 8
  %45 = load i32, ptr %12, align 4
  %46 = sext i32 %45 to i64
  %47 = getelementptr inbounds [5 x i32], ptr %9, i64 0, i64 %46
  %48 = load i32, ptr %47, align 4
  %49 = sext i32 %48 to i64
  %50 = getelementptr inbounds [357 x ptr], ptr @yytname, i64 0, i64 %49
  %51 = load ptr, ptr %50, align 8
  %52 = call i64 @zend_yytnamerr(ptr noundef null, ptr noundef %51)
  %53 = add i64 %44, %52
  store i64 %53, ptr %13, align 8
  %54 = load i64, ptr %10, align 8
  %55 = load i64, ptr %13, align 8
  %56 = icmp sle i64 %54, %55
  br i1 %56, label %57, label %62

57:                                               ; preds = %43
  %58 = load i64, ptr %13, align 8
  %59 = icmp sle i64 %58, 9223372036854775807
  br i1 %59, label %60, label %62

60:                                               ; preds = %57
  %61 = load i64, ptr %13, align 8
  store i64 %61, ptr %10, align 8
  br label %63

62:                                               ; preds = %57, %43
  store i32 -2, ptr %4, align 4
  br label %133

63:                                               ; preds = %60
  br label %64

64:                                               ; preds = %63
  %65 = load i32, ptr %12, align 4
  %66 = add nsw i32 %65, 1
  store i32 %66, ptr %12, align 4
  br label %39

67:                                               ; preds = %39
  %68 = load ptr, ptr %5, align 8
  %69 = load i64, ptr %68, align 8
  %70 = load i64, ptr %10, align 8
  %71 = icmp slt i64 %69, %70
  br i1 %71, label %72, label %87

72:                                               ; preds = %67
  %73 = load i64, ptr %10, align 8
  %74 = mul nsw i64 2, %73
  %75 = load ptr, ptr %5, align 8
  store i64 %74, ptr %75, align 8
  %76 = load i64, ptr %10, align 8
  %77 = load ptr, ptr %5, align 8
  %78 = load i64, ptr %77, align 8
  %79 = icmp sle i64 %76, %78
  br i1 %79, label %80, label %84

80:                                               ; preds = %72
  %81 = load ptr, ptr %5, align 8
  %82 = load i64, ptr %81, align 8
  %83 = icmp sle i64 %82, 9223372036854775807
  br i1 %83, label %86, label %84

84:                                               ; preds = %80, %72
  %85 = load ptr, ptr %5, align 8
  store i64 9223372036854775807, ptr %85, align 8
  br label %86

86:                                               ; preds = %84, %80
  store i32 -1, ptr %4, align 4
  br label %133

87:                                               ; preds = %67
  %88 = load ptr, ptr %6, align 8
  %89 = load ptr, ptr %88, align 8
  store ptr %89, ptr %14, align 8
  store i32 0, ptr %15, align 4
  br label %90

90:                                               ; preds = %131, %87
  %91 = load ptr, ptr %8, align 8
  %92 = load i8, ptr %91, align 1
  %93 = load ptr, ptr %14, align 8
  store i8 %92, ptr %93, align 1
  %94 = sext i8 %92 to i32
  %95 = icmp ne i32 %94, 0
  br i1 %95, label %96, label %132

96:                                               ; preds = %90
  %97 = load ptr, ptr %14, align 8
  %98 = load i8, ptr %97, align 1
  %99 = sext i8 %98 to i32
  %100 = icmp eq i32 %99, 37
  br i1 %100, label %101, label %126

101:                                              ; preds = %96
  %102 = load ptr, ptr %8, align 8
  %103 = getelementptr inbounds i8, ptr %102, i64 1
  %104 = load i8, ptr %103, align 1
  %105 = sext i8 %104 to i32
  %106 = icmp eq i32 %105, 115
  br i1 %106, label %107, label %126

107:                                              ; preds = %101
  %108 = load i32, ptr %15, align 4
  %109 = load i32, ptr %11, align 4
  %110 = icmp slt i32 %108, %109
  br i1 %110, label %111, label %126

111:                                              ; preds = %107
  %112 = load ptr, ptr %14, align 8
  %113 = load i32, ptr %15, align 4
  %114 = add nsw i32 %113, 1
  store i32 %114, ptr %15, align 4
  %115 = sext i32 %113 to i64
  %116 = getelementptr inbounds [5 x i32], ptr %9, i64 0, i64 %115
  %117 = load i32, ptr %116, align 4
  %118 = sext i32 %117 to i64
  %119 = getelementptr inbounds [357 x ptr], ptr @yytname, i64 0, i64 %118
  %120 = load ptr, ptr %119, align 8
  %121 = call i64 @zend_yytnamerr(ptr noundef %112, ptr noundef %120)
  %122 = load ptr, ptr %14, align 8
  %123 = getelementptr inbounds i8, ptr %122, i64 %121
  store ptr %123, ptr %14, align 8
  %124 = load ptr, ptr %8, align 8
  %125 = getelementptr inbounds i8, ptr %124, i64 2
  store ptr %125, ptr %8, align 8
  br label %131

126:                                              ; preds = %107, %101, %96
  %127 = load ptr, ptr %14, align 8
  %128 = getelementptr inbounds i8, ptr %127, i32 1
  store ptr %128, ptr %14, align 8
  %129 = load ptr, ptr %8, align 8
  %130 = getelementptr inbounds i8, ptr %129, i32 1
  store ptr %130, ptr %8, align 8
  br label %131

131:                                              ; preds = %126, %111
  br label %90

132:                                              ; preds = %90
  store i32 0, ptr %4, align 4
  br label %133

133:                                              ; preds = %132, %86, %62, %21
  %134 = load i32, ptr %4, align 4
  ret i32 %134
}